(dp1
S'id'
p2
(dp3
S'length'
p4
I512
sS'unique'
p5
I00
sS'sortable'
p6
I1
sS'sql'
p7
S'INTEGER PRIMARY KEY AUTOINCREMENT'
p8
sS'notnull'
p9
I00
sS'type'
p10
g2
ssS'question_info'
p11
(dp12
g4
I512
sg5
I00
sg6
I2
sg7
S'INTEGER REFERENCES question_tbl (id) ON DELETE CASCADE'
p13
sg9
I00
sg10
S'reference question_tbl'
p14
ssS'tag_info'
p15
(dp16
g4
I512
sg5
I00
sg6
I3
sg7
S'INTEGER REFERENCES article_tag (id) ON DELETE CASCADE'
p17
sg9
I00
sg10
S'reference article_tag'
p18
ss.